

Microchip MPLAB XC8 Assembler V2.35 build 20211206165544 
                                                                                               Fri Jan 21 16:30:35 2022

Microchip MPLAB XC8 C Compiler v2.35 (Free license) build 20211206165544 Og1 
     1                           	processor	18F24Q10
     2                           	fnconf	rparam,??,?,0
     3                           	pagewidth 120
     4                           	opt	flic
     5                           	psect	text0,global,reloc=2,class=CODE,delta=1
     6                           	psect	cinit,global,reloc=2,class=CODE,delta=1
     7                           	psect	cstackCOMRAM,global,class=COMRAM,space=1,delta=1,lowdata,noexec
     8                           	psect	text1,global,reloc=2,class=CODE,delta=1
     9                           	psect	text2,global,reloc=2,class=CODE,delta=1
    10                           	psect	text3,global,reloc=2,class=CODE,delta=1
    11                           	psect	text4,global,reloc=2,class=CODE,delta=1
    12                           	psect	text5,global,reloc=2,class=CODE,delta=1
    13                           	psect	intsave_regs,global,class=BIGRAM,space=1,delta=1,noexec
    14                           	psect	rparam,global,class=COMRAM,space=1,delta=1,noexec
    15                           	psect	idloc,global,abs,ovrld,class=IDLOC,space=5,delta=1,noexec
    16                           	psect	config,global,abs,ovrld,class=CONFIG,space=4,delta=1,noexec
    17  0000                     
    18                           ; Version 2.35
    19                           ; Generated 07/12/2021 GMT
    20                           ; 
    21                           ; Copyright © 2021, Microchip Technology Inc. and its subsidiaries ("Microchip")
    22                           ; All rights reserved.
    23                           ; 
    24                           ; This software is developed by Microchip Technology Inc. and its subsidiaries ("Microch
      +                          ip").
    25                           ; 
    26                           ; Redistribution and use in source and binary forms, with or without modification, are
    27                           ; permitted provided that the following conditions are met:
    28                           ; 
    29                           ;     1. Redistributions of source code must retain the above copyright notice, this lis
      +                          t of
    30                           ;        conditions and the following disclaimer.
    31                           ; 
    32                           ;     2. Redistributions in binary form must reproduce the above copyright notice, this 
      +                          list
    33                           ;        of conditions and the following disclaimer in the documentation and/or other
    34                           ;        materials provided with the distribution. Publication is not required when
    35                           ;        this file is used in an embedded application.
    36                           ; 
    37                           ;     3. Microchip's name may not be used to endorse or promote products derived from th
      +                          is
    38                           ;        software without specific prior written permission.
    39                           ; 
    40                           ; THIS SOFTWARE IS PROVIDED BY MICROCHIP "AS IS" AND ANY EXPRESS OR IMPLIED WARRANTIES,
    41                           ; INCLUDING, BUT NOT LIMITED TO, THE IMPLIED WARRANTIES OF MERCHANTABILITY AND FITNESS F
      +                          OR
    42                           ; PURPOSE ARE DISCLAIMED.  IN NO EVENT SHALL MICROCHIP BE LIABLE FOR ANY DIRECT, INDIREC
      +                          T,
    43                           ; INCIDENTAL, SPECIAL, EXEMPLARY, OR CONSEQUENTIAL DAMAGES (INCLUDING BUT NOT LIMITED TO
    44                           ; PROCUREMENT OF SUBSTITUTE GOODS OR SERVICES; LOSS OF USE, DATA OR PROFITS; OR BUSINESS
    45                           ; INTERRUPTION) HOWSOEVER CAUSED AND ON ANY THEORY OF LIABILITY, WHETHER IN CONTRACT, ST
      +                          RICT
    46                           ; LIABILITY, OR TORT (INCLUDING NEGLIGENCE OR OTHERWISE) ARISING IN ANY WAY OUT OF THE U
      +                          SE OF
    47                           ; THIS SOFTWARE, EVEN IF ADVISED OF THE POSSIBILITY OF SUCH DAMAGE.
    48                           ; 
    49                           ; 
    50                           ; Code-generator required, PIC18F24Q10 Definitions
    51                           ; 
    52                           ; SFR Addresses
    53  0000                     _OSCTUNE	set	3800
    54  0000                     _OSCFRQ	set	3801
    55  0000                     _NVMDATL	set	3964
    56  0000                     _NVMDATH	set	3965
    57  0000                     _NVMCON1bits	set	3968
    58                           
    59                           ; 1 bytes @ 0x3
    60 ;;
    61 ;;Main: autosize = 0, tempsize = 0, incstack = 0, save=0
    62 ;;
    63 ;; *************** function _main *****************
    64 ;; Defined at:
    65 ;;		line 50 in file "main.c"
    66 ;; Parameters:    Size  Location     Type
    67 ;;		None
    68 ;; Auto vars:     Size  Location     Type
    69 ;;		None
    70 ;; Return value:  Size  Location     Type
    71 ;;                  1    wreg      void 
    72 ;; Registers used:
    73 ;;		wreg, status,2, cstack
    74 ;; Tracked objects:
    75 ;;		On entry : 0/0
    76 ;;		On exit  : 0/0
    77 ;;		Unchanged: 0/0
    78 ;; Data sizes:     COMRAM   BANK0   BANK1   BANK2   BANK3
    79 ;;      Params:         0       0       0       0       0
    80 ;;      Locals:         0       0       0       0       0
    81 ;;      Temps:          0       0       0       0       0
    82 ;;      Totals:         0       0       0       0       0
    83 ;;Total ram usage:        0 bytes
    84 ;; Hardware stack levels required when called: 2
    85 ;; This function calls:
    86 ;;		_DATAEE_WriteByte
    87 ;;		_SYSTEM_Initialize
    88 ;; This function is called by:
    89 ;;		Startup code after reset
    90 ;; This function uses a non-reentrant model
    91 ;;
    92                           
    93                           	psect	text0
    94  003F2A                     __ptext0:
    95                           	callstack 0
    96  0000                     _PIR7bits	set	3788
    97  0000                     _NVMADRL	set	3961
    98  0000                     _NVMADRH	set	3962
    99  0000                     _NVMADRU	set	3963
   100  0000                     _TABLAT	set	4085
   101  0000                     _TBLPTRL	set	4086
   102  0000                     _TBLPTRH	set	4087
   103  0000                     _TBLPTRU	set	4088
   104  0000                     _TRISA	set	3975
   105  0000                     _LATC	set	3972
   106  0000                     _LATB	set	3971
   107  0000                     _LATA	set	3970
   108  0000                     _NVMCON2	set	3969
   109  0000                     _INTCONbits	set	4082
   110  0000                     _NVMCON0bits	set	3967
   111  0000                     _OSCCON1	set	3795
   112  0000                     _OSCCON3	set	3797
   113  0000                     _OSCEN	set	3799
   114  0000                     _PMD0	set	3804
   115  0000                     _INLVLA	set	3848
   116  0000                     _SLRCONA	set	3849
   117  0000                     _ODCONA	set	3850
   118  0000                     _WPUA	set	3851
   119  0000                     _ANSELA	set	3852
   120  0000                     _ANSELB	set	3860
   121  0000                     _ANSELC	set	3868
   122  0000                     _PMD5	set	3809
   123  0000                     _PMD4	set	3808
   124  0000                     _PMD3	set	3807
   125  0000                     _PMD2	set	3806
   126  0000                     _PMD1	set	3805
   127  0000                     _TRISC	set	3977
   128  0000                     _TRISB	set	3976
   129  0000                     _INLVLE	set	3877
   130  0000                     _WPUE	set	3880
   131  0000                     _INLVLC	set	3864
   132  0000                     _SLRCONC	set	3865
   133  0000                     _ODCONC	set	3866
   134  0000                     _WPUC	set	3867
   135  0000                     _INLVLB	set	3856
   136  0000                     _SLRCONB	set	3857
   137  0000                     _ODCONB	set	3858
   138  0000                     _WPUB	set	3859
   139  003F2A                     _main:
   140                           	callstack 29
   141  003F2A                     
   142                           ;main.c: 53:     SYSTEM_Initialize();
   143  003F2A  EC8E  F01F         	call	_SYSTEM_Initialize	;wreg free
   144                           
   145                           ;main.c: 70:     DATAEE_WriteByte( 0, 5);
   146  003F2E  0E05               	movlw	5
   147  003F30  6E01               	movwf	DATAEE_WriteByte@bData^0,c
   148  003F32  0E00               	movlw	0
   149  003F34  ECBA  F01F         	call	_DATAEE_WriteByte
   150  003F38                     l9:
   151  003F38  EF9C  F01F         	goto	l9
   152  003F3C  EF00  F000         	goto	start
   153  003F40                     __end_of_main:
   154                           	callstack 0
   155                           
   156                           ; #config settings
   157                           
   158                           	psect	cinit
   159  003F16                     __pcinit:
   160                           	callstack 0
   161  003F16                     start_initialization:
   162                           	callstack 0
   163  003F16                     __initialization:
   164                           	callstack 0
   165  003F16                     end_of_initialization:
   166                           	callstack 0
   167  003F16                     __end_of__initialization:
   168                           	callstack 0
   169  003F16  0100               	movlb	0
   170  003F18  EF95  F01F         	goto	_main	;jump to C main() function
   171                           
   172                           	psect	cstackCOMRAM
   173  000001                     __pcstackCOMRAM:
   174                           	callstack 0
   175  000001                     DATAEE_WriteByte@bData:
   176                           	callstack 0
   177                           
   178                           ; 1 bytes @ 0x0
   179  000001                     	ds	1
   180  000002                     DATAEE_WriteByte@bAdd:
   181                           	callstack 0
   182                           
   183                           ; 1 bytes @ 0x1
   184  000002                     	ds	1
   185  000003                     DATAEE_WriteByte@GIEBitValue:
   186                           	callstack 0
   187                           
   188                           ; 1 bytes @ 0x2
   189  000003                     	ds	1
   190  000004                     
   191 ;; *************** function _SYSTEM_Initialize *****************
   192 ;; Defined at:
   193 ;;		line 50 in file "mcc_generated_files/mcc.c"
   194 ;; Parameters:    Size  Location     Type
   195 ;;		None
   196 ;; Auto vars:     Size  Location     Type
   197 ;;		None
   198 ;; Return value:  Size  Location     Type
   199 ;;                  1    wreg      void 
   200 ;; Registers used:
   201 ;;		wreg, status,2, cstack
   202 ;; Tracked objects:
   203 ;;		On entry : 0/0
   204 ;;		On exit  : 0/0
   205 ;;		Unchanged: 0/0
   206 ;; Data sizes:     COMRAM   BANK0   BANK1   BANK2   BANK3
   207 ;;      Params:         0       0       0       0       0
   208 ;;      Locals:         0       0       0       0       0
   209 ;;      Temps:          0       0       0       0       0
   210 ;;      Totals:         0       0       0       0       0
   211 ;;Total ram usage:        0 bytes
   212 ;; Hardware stack levels used: 1
   213 ;; Hardware stack levels required when called: 1
   214 ;; This function calls:
   215 ;;		_OSCILLATOR_Initialize
   216 ;;		_PIN_MANAGER_Initialize
   217 ;;		_PMD_Initialize
   218 ;; This function is called by:
   219 ;;		_main
   220 ;; This function uses a non-reentrant model
   221 ;;
   222                           
   223                           	psect	text1
   224  003F1C                     __ptext1:
   225                           	callstack 0
   226  003F1C                     _SYSTEM_Initialize:
   227                           	callstack 29
   228  003F1C                     
   229                           ;mcc_generated_files/mcc.c: 52:     PMD_Initialize();
   230  003F1C  ECAC  F01F         	call	_PMD_Initialize	;wreg free
   231                           
   232                           ;mcc_generated_files/mcc.c: 53:     PIN_MANAGER_Initialize();
   233  003F20  ECDC  F01F         	call	_PIN_MANAGER_Initialize	;wreg free
   234                           
   235                           ;mcc_generated_files/mcc.c: 54:     OSCILLATOR_Initialize();
   236  003F24  ECA0  F01F         	call	_OSCILLATOR_Initialize	;wreg free
   237  003F28  0012               	return		;funcret
   238  003F2A                     __end_of_SYSTEM_Initialize:
   239                           	callstack 0
   240                           
   241 ;; *************** function _PMD_Initialize *****************
   242 ;; Defined at:
   243 ;;		line 71 in file "mcc_generated_files/mcc.c"
   244 ;; Parameters:    Size  Location     Type
   245 ;;		None
   246 ;; Auto vars:     Size  Location     Type
   247 ;;		None
   248 ;; Return value:  Size  Location     Type
   249 ;;                  1    wreg      void 
   250 ;; Registers used:
   251 ;;		wreg, status,2
   252 ;; Tracked objects:
   253 ;;		On entry : 0/0
   254 ;;		On exit  : 0/0
   255 ;;		Unchanged: 0/0
   256 ;; Data sizes:     COMRAM   BANK0   BANK1   BANK2   BANK3
   257 ;;      Params:         0       0       0       0       0
   258 ;;      Locals:         0       0       0       0       0
   259 ;;      Temps:          0       0       0       0       0
   260 ;;      Totals:         0       0       0       0       0
   261 ;;Total ram usage:        0 bytes
   262 ;; Hardware stack levels used: 1
   263 ;; This function calls:
   264 ;;		Nothing
   265 ;; This function is called by:
   266 ;;		_SYSTEM_Initialize
   267 ;; This function uses a non-reentrant model
   268 ;;
   269                           
   270                           	psect	text2
   271  003F58                     __ptext2:
   272                           	callstack 0
   273  003F58                     _PMD_Initialize:
   274                           	callstack 29
   275  003F58                     
   276                           ;mcc_generated_files/mcc.c: 74:     PMD0 = 0x00;
   277  003F58  0E00               	movlw	0
   278  003F5A  010E               	movlb	14	; () banked
   279  003F5C  6FDC               	movwf	220,b	;volatile
   280                           
   281                           ;mcc_generated_files/mcc.c: 76:     PMD1 = 0x00;
   282  003F5E  0E00               	movlw	0
   283  003F60  6FDD               	movwf	221,b	;volatile
   284                           
   285                           ;mcc_generated_files/mcc.c: 78:     PMD2 = 0x00;
   286  003F62  0E00               	movlw	0
   287  003F64  6FDE               	movwf	222,b	;volatile
   288                           
   289                           ;mcc_generated_files/mcc.c: 80:     PMD3 = 0x00;
   290  003F66  0E00               	movlw	0
   291  003F68  6FDF               	movwf	223,b	;volatile
   292                           
   293                           ;mcc_generated_files/mcc.c: 82:     PMD4 = 0x00;
   294  003F6A  0E00               	movlw	0
   295  003F6C  6FE0               	movwf	224,b	;volatile
   296                           
   297                           ;mcc_generated_files/mcc.c: 84:     PMD5 = 0x00;
   298  003F6E  0E00               	movlw	0
   299  003F70  6FE1               	movwf	225,b	;volatile
   300  003F72                     
   301                           ; BSR set to: 14
   302  003F72  0012               	return		;funcret
   303  003F74                     __end_of_PMD_Initialize:
   304                           	callstack 0
   305                           
   306 ;; *************** function _PIN_MANAGER_Initialize *****************
   307 ;; Defined at:
   308 ;;		line 55 in file "mcc_generated_files/pin_manager.c"
   309 ;; Parameters:    Size  Location     Type
   310 ;;		None
   311 ;; Auto vars:     Size  Location     Type
   312 ;;		None
   313 ;; Return value:  Size  Location     Type
   314 ;;                  1    wreg      void 
   315 ;; Registers used:
   316 ;;		wreg, status,2
   317 ;; Tracked objects:
   318 ;;		On entry : 0/0
   319 ;;		On exit  : 0/0
   320 ;;		Unchanged: 0/0
   321 ;; Data sizes:     COMRAM   BANK0   BANK1   BANK2   BANK3
   322 ;;      Params:         0       0       0       0       0
   323 ;;      Locals:         0       0       0       0       0
   324 ;;      Temps:          0       0       0       0       0
   325 ;;      Totals:         0       0       0       0       0
   326 ;;Total ram usage:        0 bytes
   327 ;; Hardware stack levels used: 1
   328 ;; This function calls:
   329 ;;		Nothing
   330 ;; This function is called by:
   331 ;;		_SYSTEM_Initialize
   332 ;; This function uses a non-reentrant model
   333 ;;
   334                           
   335                           	psect	text3
   336  003FB8                     __ptext3:
   337                           	callstack 0
   338  003FB8                     _PIN_MANAGER_Initialize:
   339                           	callstack 29
   340  003FB8                     
   341                           ;mcc_generated_files/pin_manager.c: 60:     LATA = 0x00;
   342  003FB8  0E00               	movlw	0
   343  003FBA  6E82               	movwf	130,c	;volatile
   344                           
   345                           ;mcc_generated_files/pin_manager.c: 61:     LATB = 0x00;
   346  003FBC  0E00               	movlw	0
   347  003FBE  6E83               	movwf	131,c	;volatile
   348                           
   349                           ;mcc_generated_files/pin_manager.c: 62:     LATC = 0x00;
   350  003FC0  0E00               	movlw	0
   351  003FC2  6E84               	movwf	132,c	;volatile
   352  003FC4                     
   353                           ;mcc_generated_files/pin_manager.c: 67:     TRISA = 0xFF;
   354  003FC4  6887               	setf	135,c	;volatile
   355  003FC6                     
   356                           ;mcc_generated_files/pin_manager.c: 68:     TRISB = 0xFF;
   357  003FC6  6888               	setf	136,c	;volatile
   358  003FC8                     
   359                           ;mcc_generated_files/pin_manager.c: 69:     TRISC = 0xFF;
   360  003FC8  6889               	setf	137,c	;volatile
   361  003FCA                     
   362                           ;mcc_generated_files/pin_manager.c: 74:     ANSELC = 0xFF;
   363  003FCA  010F               	movlb	15	; () banked
   364  003FCC  691C               	setf	28,b	;volatile
   365  003FCE                     
   366                           ; BSR set to: 15
   367                           ;mcc_generated_files/pin_manager.c: 75:     ANSELB = 0xFF;
   368  003FCE  6914               	setf	20,b	;volatile
   369  003FD0                     
   370                           ; BSR set to: 15
   371                           ;mcc_generated_files/pin_manager.c: 76:     ANSELA = 0xFF;
   372  003FD0  690C               	setf	12,b	;volatile
   373                           
   374                           ;mcc_generated_files/pin_manager.c: 81:     WPUE = 0x00;
   375  003FD2  0E00               	movlw	0
   376  003FD4  6F28               	movwf	40,b	;volatile
   377                           
   378                           ;mcc_generated_files/pin_manager.c: 82:     WPUB = 0x00;
   379  003FD6  0E00               	movlw	0
   380  003FD8  6F13               	movwf	19,b	;volatile
   381                           
   382                           ;mcc_generated_files/pin_manager.c: 83:     WPUA = 0x00;
   383  003FDA  0E00               	movlw	0
   384  003FDC  6F0B               	movwf	11,b	;volatile
   385                           
   386                           ;mcc_generated_files/pin_manager.c: 84:     WPUC = 0x00;
   387  003FDE  0E00               	movlw	0
   388  003FE0  6F1B               	movwf	27,b	;volatile
   389                           
   390                           ;mcc_generated_files/pin_manager.c: 89:     ODCONA = 0x00;
   391  003FE2  0E00               	movlw	0
   392  003FE4  6F0A               	movwf	10,b	;volatile
   393                           
   394                           ;mcc_generated_files/pin_manager.c: 90:     ODCONB = 0x00;
   395  003FE6  0E00               	movlw	0
   396  003FE8  6F12               	movwf	18,b	;volatile
   397                           
   398                           ;mcc_generated_files/pin_manager.c: 91:     ODCONC = 0x00;
   399  003FEA  0E00               	movlw	0
   400  003FEC  6F1A               	movwf	26,b	;volatile
   401  003FEE                     
   402                           ; BSR set to: 15
   403                           ;mcc_generated_files/pin_manager.c: 96:     SLRCONA = 0xFF;
   404  003FEE  6909               	setf	9,b	;volatile
   405  003FF0                     
   406                           ; BSR set to: 15
   407                           ;mcc_generated_files/pin_manager.c: 97:     SLRCONB = 0xFF;
   408  003FF0  6911               	setf	17,b	;volatile
   409  003FF2                     
   410                           ; BSR set to: 15
   411                           ;mcc_generated_files/pin_manager.c: 98:     SLRCONC = 0xFF;
   412  003FF2  6919               	setf	25,b	;volatile
   413  003FF4                     
   414                           ; BSR set to: 15
   415                           ;mcc_generated_files/pin_manager.c: 103:     INLVLA = 0xFF;
   416  003FF4  6908               	setf	8,b	;volatile
   417  003FF6                     
   418                           ; BSR set to: 15
   419                           ;mcc_generated_files/pin_manager.c: 104:     INLVLB = 0xFF;
   420  003FF6  6910               	setf	16,b	;volatile
   421  003FF8                     
   422                           ; BSR set to: 15
   423                           ;mcc_generated_files/pin_manager.c: 105:     INLVLC = 0xFF;
   424  003FF8  6918               	setf	24,b	;volatile
   425                           
   426                           ;mcc_generated_files/pin_manager.c: 106:     INLVLE = 0x08;
   427  003FFA  0E08               	movlw	8
   428  003FFC  6F25               	movwf	37,b	;volatile
   429  003FFE                     
   430                           ; BSR set to: 15
   431  003FFE  0012               	return		;funcret
   432  004000                     __end_of_PIN_MANAGER_Initialize:
   433                           	callstack 0
   434                           
   435 ;; *************** function _OSCILLATOR_Initialize *****************
   436 ;; Defined at:
   437 ;;		line 57 in file "mcc_generated_files/mcc.c"
   438 ;; Parameters:    Size  Location     Type
   439 ;;		None
   440 ;; Auto vars:     Size  Location     Type
   441 ;;		None
   442 ;; Return value:  Size  Location     Type
   443 ;;                  1    wreg      void 
   444 ;; Registers used:
   445 ;;		wreg, status,2
   446 ;; Tracked objects:
   447 ;;		On entry : 0/0
   448 ;;		On exit  : 0/0
   449 ;;		Unchanged: 0/0
   450 ;; Data sizes:     COMRAM   BANK0   BANK1   BANK2   BANK3
   451 ;;      Params:         0       0       0       0       0
   452 ;;      Locals:         0       0       0       0       0
   453 ;;      Temps:          0       0       0       0       0
   454 ;;      Totals:         0       0       0       0       0
   455 ;;Total ram usage:        0 bytes
   456 ;; Hardware stack levels used: 1
   457 ;; This function calls:
   458 ;;		Nothing
   459 ;; This function is called by:
   460 ;;		_SYSTEM_Initialize
   461 ;; This function uses a non-reentrant model
   462 ;;
   463                           
   464                           	psect	text4
   465  003F40                     __ptext4:
   466                           	callstack 0
   467  003F40                     _OSCILLATOR_Initialize:
   468                           	callstack 29
   469  003F40                     
   470                           ;mcc_generated_files/mcc.c: 60:     OSCCON1 = 0x70;
   471  003F40  0E70               	movlw	112
   472  003F42  010E               	movlb	14	; () banked
   473  003F44  6FD3               	movwf	211,b	;volatile
   474                           
   475                           ;mcc_generated_files/mcc.c: 62:     OSCCON3 = 0x00;
   476  003F46  0E00               	movlw	0
   477  003F48  6FD5               	movwf	213,b	;volatile
   478                           
   479                           ;mcc_generated_files/mcc.c: 64:     OSCEN = 0x00;
   480  003F4A  0E00               	movlw	0
   481  003F4C  6FD7               	movwf	215,b	;volatile
   482                           
   483                           ;mcc_generated_files/mcc.c: 66:     OSCFRQ = 0x02;
   484  003F4E  0E02               	movlw	2
   485  003F50  6FD9               	movwf	217,b	;volatile
   486                           
   487                           ;mcc_generated_files/mcc.c: 68:     OSCTUNE = 0x00;
   488  003F52  0E00               	movlw	0
   489  003F54  6FD8               	movwf	216,b	;volatile
   490  003F56                     
   491                           ; BSR set to: 14
   492  003F56  0012               	return		;funcret
   493  003F58                     __end_of_OSCILLATOR_Initialize:
   494                           	callstack 0
   495                           
   496 ;; *************** function _DATAEE_WriteByte *****************
   497 ;; Defined at:
   498 ;;		line 239 in file "mcc_generated_files/memory.c"
   499 ;; Parameters:    Size  Location     Type
   500 ;;  bAdd            1    wreg     unsigned char 
   501 ;;  bData           1    0[COMRAM] unsigned char 
   502 ;; Auto vars:     Size  Location     Type
   503 ;;  bAdd            1    1[COMRAM] unsigned char 
   504 ;;  GIEBitValue     1    2[COMRAM] unsigned char 
   505 ;; Return value:  Size  Location     Type
   506 ;;                  1    wreg      void 
   507 ;; Registers used:
   508 ;;		wreg, status,2
   509 ;; Tracked objects:
   510 ;;		On entry : 0/0
   511 ;;		On exit  : 0/0
   512 ;;		Unchanged: 0/0
   513 ;; Data sizes:     COMRAM   BANK0   BANK1   BANK2   BANK3
   514 ;;      Params:         1       0       0       0       0
   515 ;;      Locals:         2       0       0       0       0
   516 ;;      Temps:          0       0       0       0       0
   517 ;;      Totals:         3       0       0       0       0
   518 ;;Total ram usage:        3 bytes
   519 ;; Hardware stack levels used: 1
   520 ;; This function calls:
   521 ;;		Nothing
   522 ;; This function is called by:
   523 ;;		_main
   524 ;; This function uses a non-reentrant model
   525 ;;
   526                           
   527                           	psect	text5
   528  003F74                     __ptext5:
   529                           	callstack 0
   530  003F74                     _DATAEE_WriteByte:
   531                           	callstack 30
   532                           
   533                           ; BSR set to: 14
   534                           ;incstack = 0
   535                           ;DATAEE_WriteByte@bAdd stored from wreg
   536  003F74  6E02               	movwf	DATAEE_WriteByte@bAdd^0,c
   537  003F76                     
   538                           ;mcc_generated_files/memory.c: 239: void DATAEE_WriteByte(uint8_t bAdd, uint8_t bData);m
      +                          cc_generated_files/memory.c: 240: {;mcc_generated_files/memory.c: 241:     uint8_t GIEBi
      +                          tValue = INTCONbits.GIE;
   539  003F76  0E00               	movlw	0
   540  003F78  BEF2               	btfsc	242,7,c	;volatile
   541  003F7A  0E01               	movlw	1
   542  003F7C  6E03               	movwf	DATAEE_WriteByte@GIEBitValue^0,c
   543  003F7E                     
   544                           ;mcc_generated_files/memory.c: 244:     NVMADRU = 0x31;
   545  003F7E  0E31               	movlw	49
   546  003F80  6E7B               	movwf	123,c	;volatile
   547                           
   548                           ;mcc_generated_files/memory.c: 245:     NVMADRH = 0x00;
   549  003F82  0E00               	movlw	0
   550  003F84  6E7A               	movwf	122,c	;volatile
   551  003F86                     
   552                           ;mcc_generated_files/memory.c: 246:     NVMADRL = (uint8_t)(bAdd & 0xFF);
   553  003F86  C002  FF79         	movff	DATAEE_WriteByte@bAdd,3961	;volatile
   554  003F8A                     
   555                           ;mcc_generated_files/memory.c: 249:     NVMDATL = (uint8_t)(bData & 0xFF);
   556  003F8A  C001  FF7C         	movff	DATAEE_WriteByte@bData,3964	;volatile
   557  003F8E                     
   558                           ;mcc_generated_files/memory.c: 252:     NVMCON0bits.NVMEN = 1;
   559  003F8E  8E7F               	bsf	127,7,c	;volatile
   560  003F90                     
   561                           ;mcc_generated_files/memory.c: 255:     INTCONbits.GIE = 0;
   562  003F90  9EF2               	bcf	242,7,c	;volatile
   563  003F92                     
   564                           ;mcc_generated_files/memory.c: 258:     NVMCON2 = 0x55;
   565  003F92  0E55               	movlw	85
   566  003F94  6E81               	movwf	129,c	;volsfr
   567  003F96                     
   568                           ;mcc_generated_files/memory.c: 259:     NVMCON2 = 0xAA;
   569  003F96  0EAA               	movlw	170
   570  003F98  6E81               	movwf	129,c	;volsfr
   571  003F9A                     
   572                           ;mcc_generated_files/memory.c: 262:     NVMCON1bits.WR = 1;
   573  003F9A  8880               	bsf	128,4,c	;volsfr
   574  003F9C                     l85:
   575  003F9C  B880               	btfsc	128,4,c	;volsfr
   576  003F9E  EFD3  F01F         	goto	u121
   577  003FA2  EFD5  F01F         	goto	u120
   578  003FA6                     u121:
   579  003FA6  EFCE  F01F         	goto	l85
   580  003FAA                     u120:
   581  003FAA                     
   582                           ;mcc_generated_files/memory.c: 266:     INTCONbits.GIE = GIEBitValue;
   583  003FAA  B003               	btfsc	DATAEE_WriteByte@GIEBitValue^0,0,c
   584  003FAC  D002               	bra	u135
   585  003FAE  9EF2               	bcf	242,7,c	;volatile
   586  003FB0  D001               	bra	u136
   587  003FB2                     u135:
   588  003FB2  8EF2               	bsf	242,7,c	;volatile
   589  003FB4                     u136:
   590                           
   591                           ;mcc_generated_files/memory.c: 269:     NVMCON0bits.NVMEN = 0;
   592  003FB4  9E7F               	bcf	127,7,c	;volatile
   593  003FB6  0012               	return		;funcret
   594  003FB8                     __end_of_DATAEE_WriteByte:
   595                           	callstack 0
   596  0000                     
   597                           	psect	rparam
   598  0000                     
   599                           	psect	idloc
   600                           
   601                           ;Config register IDLOC0 @ 0x200000
   602                           ;	unspecified, using default values
   603  200000                     	org	2097152
   604  200000  FFFF               	dw	65535
   605                           
   606                           ;Config register IDLOC1 @ 0x200002
   607                           ;	unspecified, using default values
   608  200002                     	org	2097154
   609  200002  FFFF               	dw	65535
   610                           
   611                           ;Config register IDLOC2 @ 0x200004
   612                           ;	unspecified, using default values
   613  200004                     	org	2097156
   614  200004  FFFF               	dw	65535
   615                           
   616                           ;Config register IDLOC3 @ 0x200006
   617                           ;	unspecified, using default values
   618  200006                     	org	2097158
   619  200006  FFFF               	dw	65535
   620                           
   621                           ;Config register IDLOC4 @ 0x200008
   622                           ;	unspecified, using default values
   623  200008                     	org	2097160
   624  200008  FFFF               	dw	65535
   625                           
   626                           ;Config register IDLOC5 @ 0x20000A
   627                           ;	unspecified, using default values
   628  20000A                     	org	2097162
   629  20000A  FFFF               	dw	65535
   630                           
   631                           ;Config register IDLOC6 @ 0x20000C
   632                           ;	unspecified, using default values
   633  20000C                     	org	2097164
   634  20000C  FFFF               	dw	65535
   635                           
   636                           ;Config register IDLOC7 @ 0x20000E
   637                           ;	unspecified, using default values
   638  20000E                     	org	2097166
   639  20000E  FFFF               	dw	65535
   640                           
   641                           ;Config register IDLOC8 @ 0x200010
   642                           ;	unspecified, using default values
   643  200010                     	org	2097168
   644  200010  FFFF               	dw	65535
   645                           
   646                           ;Config register IDLOC9 @ 0x200012
   647                           ;	unspecified, using default values
   648  200012                     	org	2097170
   649  200012  FFFF               	dw	65535
   650                           
   651                           ;Config register IDLOC10 @ 0x200014
   652                           ;	unspecified, using default values
   653  200014                     	org	2097172
   654  200014  FFFF               	dw	65535
   655                           
   656                           ;Config register IDLOC11 @ 0x200016
   657                           ;	unspecified, using default values
   658  200016                     	org	2097174
   659  200016  FFFF               	dw	65535
   660                           
   661                           ;Config register IDLOC12 @ 0x200018
   662                           ;	unspecified, using default values
   663  200018                     	org	2097176
   664  200018  FFFF               	dw	65535
   665                           
   666                           ;Config register IDLOC13 @ 0x20001A
   667                           ;	unspecified, using default values
   668  20001A                     	org	2097178
   669  20001A  FFFF               	dw	65535
   670                           
   671                           ;Config register IDLOC14 @ 0x20001C
   672                           ;	unspecified, using default values
   673  20001C                     	org	2097180
   674  20001C  FFFF               	dw	65535
   675                           
   676                           ;Config register IDLOC15 @ 0x20001E
   677                           ;	unspecified, using default values
   678  20001E                     	org	2097182
   679  20001E  FFFF               	dw	65535
   680                           
   681                           ;Config register IDLOC16 @ 0x200020
   682                           ;	unspecified, using default values
   683  200020                     	org	2097184
   684  200020  FFFF               	dw	65535
   685                           
   686                           ;Config register IDLOC17 @ 0x200022
   687                           ;	unspecified, using default values
   688  200022                     	org	2097186
   689  200022  FFFF               	dw	65535
   690                           
   691                           ;Config register IDLOC18 @ 0x200024
   692                           ;	unspecified, using default values
   693  200024                     	org	2097188
   694  200024  FFFF               	dw	65535
   695                           
   696                           ;Config register IDLOC19 @ 0x200026
   697                           ;	unspecified, using default values
   698  200026                     	org	2097190
   699  200026  FFFF               	dw	65535
   700                           
   701                           ;Config register IDLOC20 @ 0x200028
   702                           ;	unspecified, using default values
   703  200028                     	org	2097192
   704  200028  FFFF               	dw	65535
   705                           
   706                           ;Config register IDLOC21 @ 0x20002A
   707                           ;	unspecified, using default values
   708  20002A                     	org	2097194
   709  20002A  FFFF               	dw	65535
   710                           
   711                           ;Config register IDLOC22 @ 0x20002C
   712                           ;	unspecified, using default values
   713  20002C                     	org	2097196
   714  20002C  FFFF               	dw	65535
   715                           
   716                           ;Config register IDLOC23 @ 0x20002E
   717                           ;	unspecified, using default values
   718  20002E                     	org	2097198
   719  20002E  FFFF               	dw	65535
   720                           
   721                           ;Config register IDLOC24 @ 0x200030
   722                           ;	unspecified, using default values
   723  200030                     	org	2097200
   724  200030  FFFF               	dw	65535
   725                           
   726                           ;Config register IDLOC25 @ 0x200032
   727                           ;	unspecified, using default values
   728  200032                     	org	2097202
   729  200032  FFFF               	dw	65535
   730                           
   731                           ;Config register IDLOC26 @ 0x200034
   732                           ;	unspecified, using default values
   733  200034                     	org	2097204
   734  200034  FFFF               	dw	65535
   735                           
   736                           ;Config register IDLOC27 @ 0x200036
   737                           ;	unspecified, using default values
   738  200036                     	org	2097206
   739  200036  FFFF               	dw	65535
   740                           
   741                           ;Config register IDLOC28 @ 0x200038
   742                           ;	unspecified, using default values
   743  200038                     	org	2097208
   744  200038  FFFF               	dw	65535
   745                           
   746                           ;Config register IDLOC29 @ 0x20003A
   747                           ;	unspecified, using default values
   748  20003A                     	org	2097210
   749  20003A  FFFF               	dw	65535
   750                           
   751                           ;Config register IDLOC30 @ 0x20003C
   752                           ;	unspecified, using default values
   753  20003C                     	org	2097212
   754  20003C  FFFF               	dw	65535
   755                           
   756                           ;Config register IDLOC31 @ 0x20003E
   757                           ;	unspecified, using default values
   758  20003E                     	org	2097214
   759  20003E  FFFF               	dw	65535
   760                           
   761                           ;Config register IDLOC32 @ 0x200040
   762                           ;	unspecified, using default values
   763  200040                     	org	2097216
   764  200040  FFFF               	dw	65535
   765                           
   766                           ;Config register IDLOC33 @ 0x200042
   767                           ;	unspecified, using default values
   768  200042                     	org	2097218
   769  200042  FFFF               	dw	65535
   770                           
   771                           ;Config register IDLOC34 @ 0x200044
   772                           ;	unspecified, using default values
   773  200044                     	org	2097220
   774  200044  FFFF               	dw	65535
   775                           
   776                           ;Config register IDLOC35 @ 0x200046
   777                           ;	unspecified, using default values
   778  200046                     	org	2097222
   779  200046  FFFF               	dw	65535
   780                           
   781                           ;Config register IDLOC36 @ 0x200048
   782                           ;	unspecified, using default values
   783  200048                     	org	2097224
   784  200048  FFFF               	dw	65535
   785                           
   786                           ;Config register IDLOC37 @ 0x20004A
   787                           ;	unspecified, using default values
   788  20004A                     	org	2097226
   789  20004A  FFFF               	dw	65535
   790                           
   791                           ;Config register IDLOC38 @ 0x20004C
   792                           ;	unspecified, using default values
   793  20004C                     	org	2097228
   794  20004C  FFFF               	dw	65535
   795                           
   796                           ;Config register IDLOC39 @ 0x20004E
   797                           ;	unspecified, using default values
   798  20004E                     	org	2097230
   799  20004E  FFFF               	dw	65535
   800                           
   801                           ;Config register IDLOC40 @ 0x200050
   802                           ;	unspecified, using default values
   803  200050                     	org	2097232
   804  200050  FFFF               	dw	65535
   805                           
   806                           ;Config register IDLOC41 @ 0x200052
   807                           ;	unspecified, using default values
   808  200052                     	org	2097234
   809  200052  FFFF               	dw	65535
   810                           
   811                           ;Config register IDLOC42 @ 0x200054
   812                           ;	unspecified, using default values
   813  200054                     	org	2097236
   814  200054  FFFF               	dw	65535
   815                           
   816                           ;Config register IDLOC43 @ 0x200056
   817                           ;	unspecified, using default values
   818  200056                     	org	2097238
   819  200056  FFFF               	dw	65535
   820                           
   821                           ;Config register IDLOC44 @ 0x200058
   822                           ;	unspecified, using default values
   823  200058                     	org	2097240
   824  200058  FFFF               	dw	65535
   825                           
   826                           ;Config register IDLOC45 @ 0x20005A
   827                           ;	unspecified, using default values
   828  20005A                     	org	2097242
   829  20005A  FFFF               	dw	65535
   830                           
   831                           ;Config register IDLOC46 @ 0x20005C
   832                           ;	unspecified, using default values
   833  20005C                     	org	2097244
   834  20005C  FFFF               	dw	65535
   835                           
   836                           ;Config register IDLOC47 @ 0x20005E
   837                           ;	unspecified, using default values
   838  20005E                     	org	2097246
   839  20005E  FFFF               	dw	65535
   840                           
   841                           ;Config register IDLOC48 @ 0x200060
   842                           ;	unspecified, using default values
   843  200060                     	org	2097248
   844  200060  FFFF               	dw	65535
   845                           
   846                           ;Config register IDLOC49 @ 0x200062
   847                           ;	unspecified, using default values
   848  200062                     	org	2097250
   849  200062  FFFF               	dw	65535
   850                           
   851                           ;Config register IDLOC50 @ 0x200064
   852                           ;	unspecified, using default values
   853  200064                     	org	2097252
   854  200064  FFFF               	dw	65535
   855                           
   856                           ;Config register IDLOC51 @ 0x200066
   857                           ;	unspecified, using default values
   858  200066                     	org	2097254
   859  200066  FFFF               	dw	65535
   860                           
   861                           ;Config register IDLOC52 @ 0x200068
   862                           ;	unspecified, using default values
   863  200068                     	org	2097256
   864  200068  FFFF               	dw	65535
   865                           
   866                           ;Config register IDLOC53 @ 0x20006A
   867                           ;	unspecified, using default values
   868  20006A                     	org	2097258
   869  20006A  FFFF               	dw	65535
   870                           
   871                           ;Config register IDLOC54 @ 0x20006C
   872                           ;	unspecified, using default values
   873  20006C                     	org	2097260
   874  20006C  FFFF               	dw	65535
   875                           
   876                           ;Config register IDLOC55 @ 0x20006E
   877                           ;	unspecified, using default values
   878  20006E                     	org	2097262
   879  20006E  FFFF               	dw	65535
   880                           
   881                           ;Config register IDLOC56 @ 0x200070
   882                           ;	unspecified, using default values
   883  200070                     	org	2097264
   884  200070  FFFF               	dw	65535
   885                           
   886                           ;Config register IDLOC57 @ 0x200072
   887                           ;	unspecified, using default values
   888  200072                     	org	2097266
   889  200072  FFFF               	dw	65535
   890                           
   891                           ;Config register IDLOC58 @ 0x200074
   892                           ;	unspecified, using default values
   893  200074                     	org	2097268
   894  200074  FFFF               	dw	65535
   895                           
   896                           ;Config register IDLOC59 @ 0x200076
   897                           ;	unspecified, using default values
   898  200076                     	org	2097270
   899  200076  FFFF               	dw	65535
   900                           
   901                           ;Config register IDLOC60 @ 0x200078
   902                           ;	unspecified, using default values
   903  200078                     	org	2097272
   904  200078  FFFF               	dw	65535
   905                           
   906                           ;Config register IDLOC61 @ 0x20007A
   907                           ;	unspecified, using default values
   908  20007A                     	org	2097274
   909  20007A  FFFF               	dw	65535
   910                           
   911                           ;Config register IDLOC62 @ 0x20007C
   912                           ;	unspecified, using default values
   913  20007C                     	org	2097276
   914  20007C  FFFF               	dw	65535
   915                           
   916                           ;Config register IDLOC63 @ 0x20007E
   917                           ;	unspecified, using default values
   918  20007E                     	org	2097278
   919  20007E  FFFF               	dw	65535
   920                           
   921                           ;Config register IDLOC64 @ 0x200080
   922                           ;	unspecified, using default values
   923  200080                     	org	2097280
   924  200080  FFFF               	dw	65535
   925                           
   926                           ;Config register IDLOC65 @ 0x200082
   927                           ;	unspecified, using default values
   928  200082                     	org	2097282
   929  200082  FFFF               	dw	65535
   930                           
   931                           ;Config register IDLOC66 @ 0x200084
   932                           ;	unspecified, using default values
   933  200084                     	org	2097284
   934  200084  FFFF               	dw	65535
   935                           
   936                           ;Config register IDLOC67 @ 0x200086
   937                           ;	unspecified, using default values
   938  200086                     	org	2097286
   939  200086  FFFF               	dw	65535
   940                           
   941                           ;Config register IDLOC68 @ 0x200088
   942                           ;	unspecified, using default values
   943  200088                     	org	2097288
   944  200088  FFFF               	dw	65535
   945                           
   946                           ;Config register IDLOC69 @ 0x20008A
   947                           ;	unspecified, using default values
   948  20008A                     	org	2097290
   949  20008A  FFFF               	dw	65535
   950                           
   951                           ;Config register IDLOC70 @ 0x20008C
   952                           ;	unspecified, using default values
   953  20008C                     	org	2097292
   954  20008C  FFFF               	dw	65535
   955                           
   956                           ;Config register IDLOC71 @ 0x20008E
   957                           ;	unspecified, using default values
   958  20008E                     	org	2097294
   959  20008E  FFFF               	dw	65535
   960                           
   961                           ;Config register IDLOC72 @ 0x200090
   962                           ;	unspecified, using default values
   963  200090                     	org	2097296
   964  200090  FFFF               	dw	65535
   965                           
   966                           ;Config register IDLOC73 @ 0x200092
   967                           ;	unspecified, using default values
   968  200092                     	org	2097298
   969  200092  FFFF               	dw	65535
   970                           
   971                           ;Config register IDLOC74 @ 0x200094
   972                           ;	unspecified, using default values
   973  200094                     	org	2097300
   974  200094  FFFF               	dw	65535
   975                           
   976                           ;Config register IDLOC75 @ 0x200096
   977                           ;	unspecified, using default values
   978  200096                     	org	2097302
   979  200096  FFFF               	dw	65535
   980                           
   981                           ;Config register IDLOC76 @ 0x200098
   982                           ;	unspecified, using default values
   983  200098                     	org	2097304
   984  200098  FFFF               	dw	65535
   985                           
   986                           ;Config register IDLOC77 @ 0x20009A
   987                           ;	unspecified, using default values
   988  20009A                     	org	2097306
   989  20009A  FFFF               	dw	65535
   990                           
   991                           ;Config register IDLOC78 @ 0x20009C
   992                           ;	unspecified, using default values
   993  20009C                     	org	2097308
   994  20009C  FFFF               	dw	65535
   995                           
   996                           ;Config register IDLOC79 @ 0x20009E
   997                           ;	unspecified, using default values
   998  20009E                     	org	2097310
   999  20009E  FFFF               	dw	65535
  1000                           
  1001                           ;Config register IDLOC80 @ 0x2000A0
  1002                           ;	unspecified, using default values
  1003  2000A0                     	org	2097312
  1004  2000A0  FFFF               	dw	65535
  1005                           
  1006                           ;Config register IDLOC81 @ 0x2000A2
  1007                           ;	unspecified, using default values
  1008  2000A2                     	org	2097314
  1009  2000A2  FFFF               	dw	65535
  1010                           
  1011                           ;Config register IDLOC82 @ 0x2000A4
  1012                           ;	unspecified, using default values
  1013  2000A4                     	org	2097316
  1014  2000A4  FFFF               	dw	65535
  1015                           
  1016                           ;Config register IDLOC83 @ 0x2000A6
  1017                           ;	unspecified, using default values
  1018  2000A6                     	org	2097318
  1019  2000A6  FFFF               	dw	65535
  1020                           
  1021                           ;Config register IDLOC84 @ 0x2000A8
  1022                           ;	unspecified, using default values
  1023  2000A8                     	org	2097320
  1024  2000A8  FFFF               	dw	65535
  1025                           
  1026                           ;Config register IDLOC85 @ 0x2000AA
  1027                           ;	unspecified, using default values
  1028  2000AA                     	org	2097322
  1029  2000AA  FFFF               	dw	65535
  1030                           
  1031                           ;Config register IDLOC86 @ 0x2000AC
  1032                           ;	unspecified, using default values
  1033  2000AC                     	org	2097324
  1034  2000AC  FFFF               	dw	65535
  1035                           
  1036                           ;Config register IDLOC87 @ 0x2000AE
  1037                           ;	unspecified, using default values
  1038  2000AE                     	org	2097326
  1039  2000AE  FFFF               	dw	65535
  1040                           
  1041                           ;Config register IDLOC88 @ 0x2000B0
  1042                           ;	unspecified, using default values
  1043  2000B0                     	org	2097328
  1044  2000B0  FFFF               	dw	65535
  1045                           
  1046                           ;Config register IDLOC89 @ 0x2000B2
  1047                           ;	unspecified, using default values
  1048  2000B2                     	org	2097330
  1049  2000B2  FFFF               	dw	65535
  1050                           
  1051                           ;Config register IDLOC90 @ 0x2000B4
  1052                           ;	unspecified, using default values
  1053  2000B4                     	org	2097332
  1054  2000B4  FFFF               	dw	65535
  1055                           
  1056                           ;Config register IDLOC91 @ 0x2000B6
  1057                           ;	unspecified, using default values
  1058  2000B6                     	org	2097334
  1059  2000B6  FFFF               	dw	65535
  1060                           
  1061                           ;Config register IDLOC92 @ 0x2000B8
  1062                           ;	unspecified, using default values
  1063  2000B8                     	org	2097336
  1064  2000B8  FFFF               	dw	65535
  1065                           
  1066                           ;Config register IDLOC93 @ 0x2000BA
  1067                           ;	unspecified, using default values
  1068  2000BA                     	org	2097338
  1069  2000BA  FFFF               	dw	65535
  1070                           
  1071                           ;Config register IDLOC94 @ 0x2000BC
  1072                           ;	unspecified, using default values
  1073  2000BC                     	org	2097340
  1074  2000BC  FFFF               	dw	65535
  1075                           
  1076                           ;Config register IDLOC95 @ 0x2000BE
  1077                           ;	unspecified, using default values
  1078  2000BE                     	org	2097342
  1079  2000BE  FFFF               	dw	65535
  1080                           
  1081                           ;Config register IDLOC96 @ 0x2000C0
  1082                           ;	unspecified, using default values
  1083  2000C0                     	org	2097344
  1084  2000C0  FFFF               	dw	65535
  1085                           
  1086                           ;Config register IDLOC97 @ 0x2000C2
  1087                           ;	unspecified, using default values
  1088  2000C2                     	org	2097346
  1089  2000C2  FFFF               	dw	65535
  1090                           
  1091                           ;Config register IDLOC98 @ 0x2000C4
  1092                           ;	unspecified, using default values
  1093  2000C4                     	org	2097348
  1094  2000C4  FFFF               	dw	65535
  1095                           
  1096                           ;Config register IDLOC99 @ 0x2000C6
  1097                           ;	unspecified, using default values
  1098  2000C6                     	org	2097350
  1099  2000C6  FFFF               	dw	65535
  1100                           
  1101                           ;Config register IDLOC100 @ 0x2000C8
  1102                           ;	unspecified, using default values
  1103  2000C8                     	org	2097352
  1104  2000C8  FFFF               	dw	65535
  1105                           
  1106                           ;Config register IDLOC101 @ 0x2000CA
  1107                           ;	unspecified, using default values
  1108  2000CA                     	org	2097354
  1109  2000CA  FFFF               	dw	65535
  1110                           
  1111                           ;Config register IDLOC102 @ 0x2000CC
  1112                           ;	unspecified, using default values
  1113  2000CC                     	org	2097356
  1114  2000CC  FFFF               	dw	65535
  1115                           
  1116                           ;Config register IDLOC103 @ 0x2000CE
  1117                           ;	unspecified, using default values
  1118  2000CE                     	org	2097358
  1119  2000CE  FFFF               	dw	65535
  1120                           
  1121                           ;Config register IDLOC104 @ 0x2000D0
  1122                           ;	unspecified, using default values
  1123  2000D0                     	org	2097360
  1124  2000D0  FFFF               	dw	65535
  1125                           
  1126                           ;Config register IDLOC105 @ 0x2000D2
  1127                           ;	unspecified, using default values
  1128  2000D2                     	org	2097362
  1129  2000D2  FFFF               	dw	65535
  1130                           
  1131                           ;Config register IDLOC106 @ 0x2000D4
  1132                           ;	unspecified, using default values
  1133  2000D4                     	org	2097364
  1134  2000D4  FFFF               	dw	65535
  1135                           
  1136                           ;Config register IDLOC107 @ 0x2000D6
  1137                           ;	unspecified, using default values
  1138  2000D6                     	org	2097366
  1139  2000D6  FFFF               	dw	65535
  1140                           
  1141                           ;Config register IDLOC108 @ 0x2000D8
  1142                           ;	unspecified, using default values
  1143  2000D8                     	org	2097368
  1144  2000D8  FFFF               	dw	65535
  1145                           
  1146                           ;Config register IDLOC109 @ 0x2000DA
  1147                           ;	unspecified, using default values
  1148  2000DA                     	org	2097370
  1149  2000DA  FFFF               	dw	65535
  1150                           
  1151                           ;Config register IDLOC110 @ 0x2000DC
  1152                           ;	unspecified, using default values
  1153  2000DC                     	org	2097372
  1154  2000DC  FFFF               	dw	65535
  1155                           
  1156                           ;Config register IDLOC111 @ 0x2000DE
  1157                           ;	unspecified, using default values
  1158  2000DE                     	org	2097374
  1159  2000DE  FFFF               	dw	65535
  1160                           
  1161                           ;Config register IDLOC112 @ 0x2000E0
  1162                           ;	unspecified, using default values
  1163  2000E0                     	org	2097376
  1164  2000E0  FFFF               	dw	65535
  1165                           
  1166                           ;Config register IDLOC113 @ 0x2000E2
  1167                           ;	unspecified, using default values
  1168  2000E2                     	org	2097378
  1169  2000E2  FFFF               	dw	65535
  1170                           
  1171                           ;Config register IDLOC114 @ 0x2000E4
  1172                           ;	unspecified, using default values
  1173  2000E4                     	org	2097380
  1174  2000E4  FFFF               	dw	65535
  1175                           
  1176                           ;Config register IDLOC115 @ 0x2000E6
  1177                           ;	unspecified, using default values
  1178  2000E6                     	org	2097382
  1179  2000E6  FFFF               	dw	65535
  1180                           
  1181                           ;Config register IDLOC116 @ 0x2000E8
  1182                           ;	unspecified, using default values
  1183  2000E8                     	org	2097384
  1184  2000E8  FFFF               	dw	65535
  1185                           
  1186                           ;Config register IDLOC117 @ 0x2000EA
  1187                           ;	unspecified, using default values
  1188  2000EA                     	org	2097386
  1189  2000EA  FFFF               	dw	65535
  1190                           
  1191                           ;Config register IDLOC118 @ 0x2000EC
  1192                           ;	unspecified, using default values
  1193  2000EC                     	org	2097388
  1194  2000EC  FFFF               	dw	65535
  1195                           
  1196                           ;Config register IDLOC119 @ 0x2000EE
  1197                           ;	unspecified, using default values
  1198  2000EE                     	org	2097390
  1199  2000EE  FFFF               	dw	65535
  1200                           
  1201                           ;Config register IDLOC120 @ 0x2000F0
  1202                           ;	unspecified, using default values
  1203  2000F0                     	org	2097392
  1204  2000F0  FFFF               	dw	65535
  1205                           
  1206                           ;Config register IDLOC121 @ 0x2000F2
  1207                           ;	unspecified, using default values
  1208  2000F2                     	org	2097394
  1209  2000F2  FFFF               	dw	65535
  1210                           
  1211                           ;Config register IDLOC122 @ 0x2000F4
  1212                           ;	unspecified, using default values
  1213  2000F4                     	org	2097396
  1214  2000F4  FFFF               	dw	65535
  1215                           
  1216                           ;Config register IDLOC123 @ 0x2000F6
  1217                           ;	unspecified, using default values
  1218  2000F6                     	org	2097398
  1219  2000F6  FFFF               	dw	65535
  1220                           
  1221                           ;Config register IDLOC124 @ 0x2000F8
  1222                           ;	unspecified, using default values
  1223  2000F8                     	org	2097400
  1224  2000F8  FFFF               	dw	65535
  1225                           
  1226                           ;Config register IDLOC125 @ 0x2000FA
  1227                           ;	unspecified, using default values
  1228  2000FA                     	org	2097402
  1229  2000FA  FFFF               	dw	65535
  1230                           
  1231                           ;Config register IDLOC126 @ 0x2000FC
  1232                           ;	unspecified, using default values
  1233  2000FC                     	org	2097404
  1234  2000FC  FFFF               	dw	65535
  1235                           
  1236                           ;Config register IDLOC127 @ 0x2000FE
  1237                           ;	unspecified, using default values
  1238  2000FE                     	org	2097406
  1239  2000FE  FFFF               	dw	65535
  1240                           
  1241                           	psect	config
  1242                           
  1243                           ;Config register CONFIG1L @ 0x300000
  1244                           ;	External Oscillator mode Selection bits
  1245                           ;	FEXTOSC = XT, XT (crystal oscillator) above 100 kHz, below 8 MHz; PFM set to medium po
      +                          wer
  1246                           ;	Power-up default value for COSC bits
  1247                           ;	RSTOSC = EXTOSC, EXTOSC operating per FEXTOSC bits (device manufacturing default)
  1248  300000                     	org	3145728
  1249  300000  F9                 	db	249
  1250                           
  1251                           ;Config register CONFIG1H @ 0x300001
  1252                           ;	Clock Out Enable bit
  1253                           ;	CLKOUTEN = OFF, CLKOUT function is disabled
  1254                           ;	Clock Switch Enable bit
  1255                           ;	CSWEN = ON, Writing to NOSC and NDIV is allowed
  1256                           ;	Fail-Safe Clock Monitor Enable bit
  1257                           ;	FCMEN = ON, Fail-Safe Clock Monitor enabled
  1258  300001                     	org	3145729
  1259  300001  FF                 	db	255
  1260                           
  1261                           ;Config register CONFIG2L @ 0x300002
  1262                           ;	Master Clear Enable bit
  1263                           ;	MCLRE = EXTMCLR, MCLR pin (RE3) is MCLR
  1264                           ;	Power-up Timer Enable bit
  1265                           ;	PWRTE = OFF, Power up timer disabled
  1266                           ;	Low-power BOR enable bit
  1267                           ;	LPBOREN = OFF, Low power BOR is disabled
  1268                           ;	Brown-out Reset Enable bits
  1269                           ;	BOREN = SBORDIS, Brown-out Reset enabled , SBOREN bit is ignored
  1270  300002                     	org	3145730
  1271  300002  FF                 	db	255
  1272                           
  1273                           ;Config register CONFIG2H @ 0x300003
  1274                           ;	unspecified, using default values
  1275                           ;	Brown Out Reset Voltage selection bits
  1276                           ;	BORV = 0x3, unprogrammed default
  1277                           ;	ZCD Disable bit
  1278                           ;	ZCD = 0x1, unprogrammed default
  1279                           ;	PPSLOCK bit One-Way Set Enable bit
  1280                           ;	PPS1WAY = 0x1, unprogrammed default
  1281                           ;	Stack Full/Underflow Reset Enable bit
  1282                           ;	STVREN = 0x1, unprogrammed default
  1283                           ;	Extended Instruction Set Enable bit
  1284                           ;	XINST = 0x1, unprogrammed default
  1285  300003                     	org	3145731
  1286  300003  FF                 	db	255
  1287                           
  1288                           ;Config register CONFIG3L @ 0x300004
  1289                           ;	WDT Period Select bits
  1290                           ;	WDTCPS = WDTCPS_31, Divider ratio 1:65536; software control of WDTPS
  1291                           ;	WDT operating mode
  1292                           ;	WDTE = OFF, WDT Disabled
  1293  300004                     	org	3145732
  1294  300004  9F                 	db	159
  1295                           
  1296                           ;Config register CONFIG3H @ 0x300005
  1297                           ;	WDT Window Select bits
  1298                           ;	WDTCWS = WDTCWS_7, window always open (100%); software control; keyed access not requi
      +                          red
  1299                           ;	WDT input clock selector
  1300                           ;	WDTCCS = SC, Software Control
  1301  300005                     	org	3145733
  1302  300005  FF                 	db	255
  1303                           
  1304                           ;Config register CONFIG4L @ 0x300006
  1305                           ;	Write Protection Block 0
  1306                           ;	WRT0 = OFF, Block 0 (000800-001FFFh) not write-protected
  1307                           ;	Write Protection Block 1
  1308                           ;	WRT1 = OFF, Block 1 (002000-003FFFh) not write-protected
  1309  300006                     	org	3145734
  1310  300006  FF                 	db	255
  1311                           
  1312                           ;Config register CONFIG4H @ 0x300007
  1313                           ;	Configuration Register Write Protection bit
  1314                           ;	WRTC = OFF, Configuration registers (300000-30000Bh) not write-protected
  1315                           ;	Boot Block Write Protection bit
  1316                           ;	WRTB = OFF, Boot Block (000000-0007FFh) not write-protected
  1317                           ;	Data EEPROM Write Protection bit
  1318                           ;	WRTD = OFF, Data EEPROM not write-protected
  1319                           ;	Scanner Enable bit
  1320                           ;	SCANE = ON, Scanner module is available for use, SCANMD bit can control the module
  1321                           ;	Low Voltage Programming Enable bit
  1322                           ;	LVP = OFF, HV on MCLR/VPP must be used for programming
  1323  300007                     	org	3145735
  1324  300007  DF                 	db	223
  1325                           
  1326                           ;Config register CONFIG5L @ 0x300008
  1327                           ;	UserNVM Program Memory Code Protection bit
  1328                           ;	CP = OFF, UserNVM code protection disabled
  1329                           ;	DataNVM Memory Code Protection bit
  1330                           ;	CPD = OFF, DataNVM code protection disabled
  1331  300008                     	org	3145736
  1332  300008  FF                 	db	255
  1333                           
  1334                           ;Config register CONFIG5H @ 0x300009
  1335                           ;	unspecified, using default values
  1336  300009                     	org	3145737
  1337  300009  FF                 	db	255
  1338                           
  1339                           ;Config register CONFIG6L @ 0x30000A
  1340                           ;	Table Read Protection Block 0
  1341                           ;	EBTR0 = OFF, Block 0 (000800-001FFFh) not protected from table reads executed in other
      +                           blocks
  1342                           ;	Table Read Protection Block 1
  1343                           ;	EBTR1 = OFF, Block 1 (002000-003FFFh) not protected from table reads executed in other
      +                           blocks
  1344  30000A                     	org	3145738
  1345  30000A  FF                 	db	255
  1346                           
  1347                           ;Config register CONFIG6H @ 0x30000B
  1348                           ;	Boot Block Table Read Protection bit
  1349                           ;	EBTRB = OFF, Boot Block (000000-0007FFh) not protected from table reads executed in ot
      +                          her blocks
  1350  30000B                     	org	3145739
  1351  30000B  FF                 	db	255
  1352                           tosu	equ	0xFFF
  1353                           tosh	equ	0xFFE
  1354                           tosl	equ	0xFFD
  1355                           stkptr	equ	0xFFC
  1356                           pclatu	equ	0xFFB
  1357                           pclath	equ	0xFFA
  1358                           pcl	equ	0xFF9
  1359                           tblptru	equ	0xFF8
  1360                           tblptrh	equ	0xFF7
  1361                           tblptrl	equ	0xFF6
  1362                           tablat	equ	0xFF5
  1363                           prodh	equ	0xFF4
  1364                           prodl	equ	0xFF3
  1365                           indf0	equ	0xFEF
  1366                           postinc0	equ	0xFEE
  1367                           postdec0	equ	0xFED
  1368                           preinc0	equ	0xFEC
  1369                           plusw0	equ	0xFEB
  1370                           fsr0h	equ	0xFEA
  1371                           fsr0l	equ	0xFE9
  1372                           wreg	equ	0xFE8
  1373                           indf1	equ	0xFE7
  1374                           postinc1	equ	0xFE6
  1375                           postdec1	equ	0xFE5
  1376                           preinc1	equ	0xFE4
  1377                           plusw1	equ	0xFE3
  1378                           fsr1h	equ	0xFE2
  1379                           fsr1l	equ	0xFE1
  1380                           bsr	equ	0xFE0
  1381                           indf2	equ	0xFDF
  1382                           postinc2	equ	0xFDE
  1383                           postdec2	equ	0xFDD
  1384                           preinc2	equ	0xFDC
  1385                           plusw2	equ	0xFDB
  1386                           fsr2h	equ	0xFDA
  1387                           fsr2l	equ	0xFD9
  1388                           status	equ	0xFD8

Data Sizes:
    Strings     0
    Constant    0
    Data        0
    BSS         0
    Persistent  0
    Stack       0

Auto Spaces:
    Space          Size  Autos    Used
    COMRAM           95      3       3
    BANK0           160      0       0
    BANK1           256      0       0
    BANK2           256      0       0
    BANK3           256      0       0

Pointer List with Targets:

    None.

Critical Paths under _main in COMRAM

    _main->_DATAEE_WriteByte

Critical Paths under _main in BANK0

    None.

Critical Paths under _main in BANK1

    None.

Critical Paths under _main in BANK2

    None.

Critical Paths under _main in BANK3

    None.

Call Graph Tables:

 ---------------------------------------------------------------------------------
 (Depth) Function   	        Calls       Base Space   Used Autos Params    Refs
 ---------------------------------------------------------------------------------
 (0) _main                                                 0     0      0     143
                   _DATAEE_WriteByte
                  _SYSTEM_Initialize
 ---------------------------------------------------------------------------------
 (1) _SYSTEM_Initialize                                    0     0      0       0
              _OSCILLATOR_Initialize
             _PIN_MANAGER_Initialize
                     _PMD_Initialize
 ---------------------------------------------------------------------------------
 (2) _PMD_Initialize                                       0     0      0       0
 ---------------------------------------------------------------------------------
 (2) _PIN_MANAGER_Initialize                               0     0      0       0
 ---------------------------------------------------------------------------------
 (2) _OSCILLATOR_Initialize                                0     0      0       0
 ---------------------------------------------------------------------------------
 (1) _DATAEE_WriteByte                                     3     2      1     143
                                              0 COMRAM     3     2      1
 ---------------------------------------------------------------------------------
 Estimated maximum stack depth 2
 ---------------------------------------------------------------------------------

 Call Graph Graphs:

 _main (ROOT)
   _DATAEE_WriteByte
   _SYSTEM_Initialize
     _OSCILLATOR_Initialize
     _PIN_MANAGER_Initialize
     _PMD_Initialize

 Address spaces:
Name               Size   Autos  Total    Cost      Usage
BITCOMRAM           5F      0       0       0        0.0%
EEDATA             100      0       0       0        0.0%
NULL                 0      0       0       0        0.0%
CODE                 0      0       0       0        0.0%
COMRAM              5F      3       3       1        3.2%
STACK                0      0       0       2        0.0%
BITBANK0            A0      0       0       3        0.0%
BANK0               A0      0       0       4        0.0%
BITBANK1           100      0       0       5        0.0%
BANK1              100      0       0       6        0.0%
BITBANK2           100      0       0       7        0.0%
BANK2              100      0       0       8        0.0%
BITBANK3           100      0       0       9        0.0%
BANK3              100      0       0      10        0.0%
BITBIGSFR_1h         7      0       0      11        0.0%
BITBIGSFR_1lhhh      2      0       0      12        0.0%
BITBIGSFR_1lhhl     68      0       0      13        0.0%
BITBIGSFR_1lhhl      2      0       0      14        0.0%
BITBIGSFR_1lhlh      1      0       0      15        0.0%
BITBIGSFR_1llhh     50      0       0      16        0.0%
BITBIGSFR_1llhh      2      0       0      17        0.0%
BITBIGSFR_1llhh      8      0       0      18        0.0%
BITBIGSFR_1llhh      3      0       0      19        0.0%
BITBIGSFR_1llhh      3      0       0      20        0.0%
BITBIGSFR_1llhh     26      0       0      21        0.0%
BITBIGSFR_1llhh      2      0       0      22        0.0%
BITBIGSFR_1llhh      1      0       0      23        0.0%
BITBIGSFR_1llhh      1      0       0      24        0.0%
BITBIGSFR_1llhl      6      0       0      25        0.0%
BITBIGSFR_1lll      44      0       0      26        0.0%
BITBIGSFR           FF      0       0      27        0.0%
ABS                  0      0       0      28        0.0%
BIGRAM             3FF      0       0      29        0.0%
DATA                 0      0       0      30        0.0%
BIGSFR_1             0      0       0     200        0.0%
BIGSFR               0      0       0     200        0.0%
BITSFR_3             0      0       0     200        0.0%
SFR_3                0      0       0     200        0.0%
BITSFR_2             0      0       0     200        0.0%
SFR_2                0      0       0     200        0.0%
BITSFR_1             0      0       0     200        0.0%
SFR_1                0      0       0     200        0.0%
BITSFR               0      0       0     200        0.0%
SFR                  0      0       0     200        0.0%


Microchip Technology PIC18 Macro Assembler V2.35 build 20211206165544 
Symbol Table                                                                                   Fri Jan 21 16:30:35 2022

                             l9 3F38                              l10 3F38                              l85 3F9C  
                            l87 3FAA                              l88 3FB6                             l131 3F72  
                           l125 3F28                             l128 3F56                             l180 3FFE  
                           l861 3FB8                             l871 3FCE                             l863 3FC4  
                           l881 3FF4                             l873 3FD0                             l865 3FC6  
                           l883 3FF6                             l875 3FEE                             l867 3FC8  
                           l859 3F58                             l885 3FF8                             l877 3FF0  
                           l869 3FCA                             l887 3F40                             l879 3FF2  
                           l889 3F1C                             u120 3FAA                             u121 3FA6  
                           u135 3FB2                             u136 3FB4                            l1031 3F86  
                          l1041 3F96                            l1033 3F8A                            l1043 3F9A  
                          l1035 3F8E                            l1027 3F76                            l1037 3F90  
                          l1029 3F7E                            l1045 3F2A                            l1039 3F92  
                          _LATA 000F82                            _LATB 000F83                            _LATC 000F84  
                          _PMD0 000EDC                            _PMD1 000EDD                            _PMD2 000EDE  
                          _PMD3 000EDF                            _PMD4 000EE0                            _PMD5 000EE1  
                          _WPUA 000F0B                            _WPUB 000F13                            _WPUC 000F1B  
                          _WPUE 000F28                            _main 3F2A                            start 0000  
                  ___param_bank 000000   __end_of_OSCILLATOR_Initialize 3F58                           ?_main 0001  
                         _OSCEN 000ED7                           _TRISA 000F87                           _TRISB 000F88  
                         _TRISC 000F89                 __initialization 3F16                    __end_of_main 3F40  
                        ??_main 0004                   __activetblptr 000000                          _ANSELA 000F0C  
                        _ANSELB 000F14                          _ANSELC 000F1C                          _ODCONA 000F0A  
                        _ODCONB 000F12                          _ODCONC 000F1A                          _INLVLA 000F08  
                        _INLVLB 000F10                          _INLVLC 000F18                          _INLVLE 000F25  
                        _TABLAT 000FF5                          _OSCFRQ 000ED9                          isa$std 000001  
                _PMD_Initialize 3F58               _SYSTEM_Initialize 3F1C                      __accesstop 0060  
       __end_of__initialization 3F16              ?_SYSTEM_Initialize 0001                   ___rparam_used 000001  
                __pcstackCOMRAM 0001             ??_SYSTEM_Initialize 0001                _DATAEE_WriteByte 3F74  
        __end_of_PMD_Initialize 3F74       __end_of_SYSTEM_Initialize 3F2A                 ?_PMD_Initialize 0001  
                       _OSCCON1 000ED3                         _OSCCON3 000ED5                         _TBLPTRH 000FF7  
                       _TBLPTRL 000FF6                         _TBLPTRU 000FF8                         _NVMADRH 000F7A  
                       _NVMADRL 000F79                         _NVMADRU 000F7B                         _NVMDATH 000F7D  
                       _OSCTUNE 000ED8                         _NVMDATL 000F7C                         _NVMCON2 000F81  
                       _SLRCONA 000F09                         _SLRCONB 000F11                         _SLRCONC 000F19  
          DATAEE_WriteByte@bAdd 0002                         __Hparam 0000                         __Lparam 0000  
                       __pcinit 3F16                         __ramtop 0400                         __ptext0 3F2A  
                       __ptext1 3F1C                         __ptext2 3F58                         __ptext3 3FB8  
                       __ptext4 3F40                         __ptext5 3F74           _OSCILLATOR_Initialize 3F40  
      ??_PIN_MANAGER_Initialize 0001            end_of_initialization 3F16        __end_of_DATAEE_WriteByte 3FB8  
        ?_OSCILLATOR_Initialize 0001             start_initialization 3F16                ??_PMD_Initialize 0001  
        _PIN_MANAGER_Initialize 3FB8                       _sectorRAM 000400                        _PIR7bits 000ECC  
         DATAEE_WriteByte@bData 0001               ?_DATAEE_WriteByte 0001              ??_DATAEE_WriteByte 0002  
                      __Hrparam 0000                        __Lrparam 0000         ??_OSCILLATOR_Initialize 0001  
   DATAEE_WriteByte@GIEBitValue 0003                        isa$xinst 000000                      _INTCONbits 000FF2  
                   _NVMCON0bits 000F7F                     _NVMCON1bits 000F80         ?_PIN_MANAGER_Initialize 0001  
__end_of_PIN_MANAGER_Initialize 4000  
